target datalayout = "e-m:e-p270:32:32-p271:32:32-p272:64:64-i64:64-i128:128-f80:128-n8:16:32:64-S128"
target triple = "x86_64-pc-linux-gnu"

%struct._object = type { %union.anon, ptr }
%union.anon = type { i64 }

@_Py_NoneStruct = external global %struct._object, align 8
@.str.51 = private unnamed_addr constant [17 x i8] c"PyErr_Occurred()\00", align 1
@.str.52 = private unnamed_addr constant [47 x i8] c"../cpython/Modules/_testlimitedcapi/abstract.c\00", align 1
@.str.53 = private unnamed_addr constant [18 x i8] c"!PyErr_Occurred()\00", align 1
@.str.56 = private unnamed_addr constant [4 x i8] c"OnO\00", align 1
@__PRETTY_FUNCTION__.sequence_setitem = private unnamed_addr constant [51 x i8] c"PyObject *sequence_setitem(PyObject *, PyObject *)\00", align 1

; Function Attrs: nounwind uwtable
define internal ptr @sequence_setitem(ptr noundef %0, ptr noundef %1) #0 {
  %3 = alloca ptr, align 8
  %4 = alloca ptr, align 8
  %5 = alloca ptr, align 8
  %6 = alloca i64, align 8
  %7 = alloca ptr, align 8
  %8 = alloca ptr, align 8
  %9 = alloca i32, align 4
  %10 = alloca i32, align 4
  store ptr %0, ptr %4, align 8, !tbaa !3
  store ptr %1, ptr %5, align 8, !tbaa !3
  call void @llvm.lifetime.start.p0(i64 8, ptr %6) #4
  call void @llvm.lifetime.start.p0(i64 8, ptr %7) #4
  call void @llvm.lifetime.start.p0(i64 8, ptr %8) #4
  %11 = load ptr, ptr %5, align 8, !tbaa !3
  %12 = call i32 (ptr, ptr, ...) @PyArg_ParseTuple(ptr noundef %11, ptr noundef @.str.56, ptr noundef %7, ptr noundef %6, ptr noundef %8)
  %13 = icmp ne i32 %12, 0
  br i1 %13, label %15, label %14

14:                                               ; preds = %2
  store ptr null, ptr %3, align 8
  store i32 1, ptr %9, align 4
  br label %57

15:                                               ; preds = %2
  br label %16

16:                                               ; preds = %15
  %17 = load ptr, ptr %7, align 8, !tbaa !3
  %18 = icmp eq ptr %17, @_Py_NoneStruct
  br i1 %18, label %19, label %20

19:                                               ; preds = %16
  store ptr null, ptr %7, align 8, !tbaa !3
  br label %20

20:                                               ; preds = %19, %16
  br label %21

21:                                               ; preds = %20
  br label %22

22:                                               ; preds = %21
  br label %23

23:                                               ; preds = %22
  %24 = load ptr, ptr %8, align 8, !tbaa !3
  %25 = icmp eq ptr %24, @_Py_NoneStruct
  br i1 %25, label %26, label %27

26:                                               ; preds = %23
  store ptr null, ptr %8, align 8, !tbaa !3
  br label %27

27:                                               ; preds = %26, %23
  br label %28

28:                                               ; preds = %27
  br label %29

29:                                               ; preds = %28
  br label %30

30:                                               ; preds = %29
  call void @llvm.lifetime.start.p0(i64 4, ptr %10) #4
  %31 = load ptr, ptr %7, align 8, !tbaa !3
  %32 = load i64, ptr %6, align 8, !tbaa !12
  %33 = load ptr, ptr %8, align 8, !tbaa !3
  %34 = call i32 @PySequence_SetItem(ptr noundef %31, i64 noundef %32, ptr noundef %33)
  store i32 %34, ptr %10, align 4, !tbaa !10
  %35 = load i32, ptr %10, align 4, !tbaa !10
  %36 = icmp eq i32 %35, -1
  br i1 %36, label %37, label %44

37:                                               ; preds = %30
  %38 = call ptr @PyErr_Occurred()
  %39 = icmp ne ptr %38, null
  br i1 %39, label %40, label %41

40:                                               ; preds = %37
  br label %43

41:                                               ; preds = %37
  call void @__assert_fail(ptr noundef @.str.51, ptr noundef @.str.52, i32 noundef 421, ptr noundef @__PRETTY_FUNCTION__.sequence_setitem) #5
  unreachable

42:                                               ; No predecessors!
  br label %43

43:                                               ; preds = %42, %40
  store ptr null, ptr %3, align 8
  store i32 1, ptr %9, align 4
  br label %54

44:                                               ; preds = %30
  %45 = call ptr @PyErr_Occurred()
  %46 = icmp ne ptr %45, null
  br i1 %46, label %48, label %47

47:                                               ; preds = %44
  br label %50

48:                                               ; preds = %44
  call void @__assert_fail(ptr noundef @.str.53, ptr noundef @.str.52, i32 noundef 421, ptr noundef @__PRETTY_FUNCTION__.sequence_setitem) #5
  unreachable

49:                                               ; No predecessors!
  br label %50

50:                                               ; preds = %49, %47
  %51 = load i32, ptr %10, align 4, !tbaa !10
  %52 = sext i32 %51 to i64
  %53 = call ptr @PyLong_FromLong(i64 noundef %52)
  store ptr %53, ptr %3, align 8
  store i32 1, ptr %9, align 4
  br label %54

54:                                               ; preds = %50, %43
  call void @llvm.lifetime.end.p0(i64 4, ptr %10) #4
  br label %57

55:                                               ; No predecessors!
  br label %56

56:                                               ; preds = %55
  store i32 0, ptr %9, align 4
  br label %57

57:                                               ; preds = %56, %54, %14
  call void @llvm.lifetime.end.p0(i64 8, ptr %8) #4
  call void @llvm.lifetime.end.p0(i64 8, ptr %7) #4
  call void @llvm.lifetime.end.p0(i64 8, ptr %6) #4
  %58 = load i32, ptr %9, align 4
  switch i32 %58, label %61 [
    i32 0, label %59
    i32 1, label %59
  ]

59:                                               ; preds = %57, %57
  %60 = load ptr, ptr %3, align 8
  ret ptr %60

61:                                               ; preds = %57
  unreachable
}