; Function Attrs: nounwind uwtable
define internal ptr @sequence_setitem(ptr readnone captures(none) %0, ptr noundef %1) #0 {
  %3 = alloca i64, align 8
  %4 = alloca ptr, align 8
  %5 = alloca ptr, align 8
  call void @llvm.lifetime.start.p0(i64 8, ptr nonnull %3) #4
  call void @llvm.lifetime.start.p0(i64 8, ptr nonnull %4) #4
  call void @llvm.lifetime.start.p0(i64 8, ptr nonnull %5) #4
  %6 = call i32 (ptr, ptr, ...) @PyArg_ParseTuple(ptr noundef %1, ptr noundef nonnull @.str.56, ptr noundef nonnull %4, ptr noundef nonnull %3, ptr noundef nonnull %5) #4
  %.not = icmp eq i32 %6, 0
  br i1 %.not, label %29, label %7

7:                                                ; preds = %2
  %8 = load ptr, ptr %4, align 8, !tbaa !3
  %9 = icmp eq ptr %8, @_Py_NoneStruct
  br i1 %9, label %10, label %11

10:                                               ; preds = %7
  store ptr null, ptr %4, align 8, !tbaa !3
  br label %11

11:                                               ; preds = %7, %10
  %12 = phi ptr [ %8, %7 ], [ null, %10 ]
  %13 = load ptr, ptr %5, align 8, !tbaa !3
  %14 = icmp eq ptr %13, @_Py_NoneStruct
  br i1 %14, label %15, label %16

15:                                               ; preds = %11
  store ptr null, ptr %5, align 8, !tbaa !3
  br label %16

16:                                               ; preds = %11, %15
  %17 = phi ptr [ %13, %11 ], [ null, %15 ]
  %18 = load i64, ptr %3, align 8, !tbaa !10
  %19 = call i32 @PySequence_SetItem(ptr noundef %12, i64 noundef %18, ptr noundef %17) #4
  %20 = icmp eq i32 %19, -1
  %21 = call ptr @PyErr_Occurred() #4
  %.not5 = icmp eq ptr %21, null
  br i1 %20, label %22, label %24

22:                                               ; preds = %16
  br i1 %.not5, label %23, label %29

23:                                               ; preds = %22
  call void @__assert_fail(ptr noundef nonnull @.str.51, ptr noundef nonnull @.str.52, i32 noundef 421, ptr noundef nonnull @__PRETTY_FUNCTION__.sequence_setitem) #5
  unreachable

24:                                               ; preds = %16
  br i1 %.not5, label %26, label %25

25:                                               ; preds = %24
  call void @__assert_fail(ptr noundef nonnull @.str.53, ptr noundef nonnull @.str.52, i32 noundef 421, ptr noundef nonnull @__PRETTY_FUNCTION__.sequence_setitem) #5
  unreachable

26:                                               ; preds = %24
  %27 = sext i32 %19 to i64
  %28 = call ptr @PyLong_FromLong(i64 noundef %27) #4
  br label %29

29:                                               ; preds = %26, %22, %2
  %.0 = phi ptr [ null, %2 ], [ %28, %26 ], [ null, %22 ]
  call void @llvm.lifetime.end.p0(i64 8, ptr nonnull %5) #4
  call void @llvm.lifetime.end.p0(i64 8, ptr nonnull %4) #4
  call void @llvm.lifetime.end.p0(i64 8, ptr nonnull %3) #4
  ret ptr %.0
}